target datalayout = "e-m:e-p270:32:32-p271:32:32-p272:64:64-i64:64-i128:128-f80:128-n8:16:32:64-S128"
target triple = "x86_64-pc-linux-gnu"

%struct.AVFilterContext = type { ptr, ptr, ptr, ptr, ptr, i32, ptr, ptr, i32, ptr, ptr, i32, i32, ptr, ptr, ptr, ptr, i32, ptr, i32, i32 }
%struct.ShowSpectrumContext = type { ptr, i32, i32, ptr, %struct.AVRational, %struct.AVRational, ptr, ptr, i32, i32, i32, i32, i32, i32, i32, i32, i32, float, float, i32, i32, i32, i32, ptr, ptr, ptr, ptr, i32, ptr, ptr, ptr, ptr, ptr, ptr, i32, i32, i32, double, float, float, i32, ptr, ptr, i64, i64, i64, i32, i32, i32, i32, i32, float, float, float, float, i64, ptr, i32, float, ptr, i32, i32 }
%struct.AVRational = type { i32, i32 }
%struct.AVComplexFloat = type { float, float }

; Function Attrs: nounwind uwtable
define internal void @unwrap(ptr noundef %0, i32 noundef %1, float noundef %2, ptr noundef %3, ptr noundef %4) #1 {
  %6 = alloca ptr, align 8
  %7 = alloca i32, align 4
  %8 = alloca float, align 4
  %9 = alloca ptr, align 8
  %10 = alloca ptr, align 8
  %11 = alloca float, align 4
  %12 = alloca float, align 4
  %13 = alloca float, align 4
  %14 = alloca float, align 4
  %15 = alloca i32, align 4
  %16 = alloca float, align 4
  %17 = alloca float, align 4
  store ptr %0, ptr %6, align 8, !tbaa !128
  store i32 %1, ptr %7, align 4, !tbaa !36
  store float %2, ptr %8, align 4, !tbaa !126
  store ptr %3, ptr %9, align 8, !tbaa !128
  store ptr %4, ptr %10, align 8, !tbaa !128
  call void @llvm.lifetime.start.p0(i64 4, ptr %11) #13
  store float 0x401921FB60000000, ptr %11, align 4, !tbaa !126
  call void @llvm.lifetime.start.p0(i64 4, ptr %12) #13
  store float 0.000000e+00, ptr %12, align 4, !tbaa !126
  call void @llvm.lifetime.start.p0(i64 4, ptr %13) #13
  store float 0xC7EFFFFFE0000000, ptr %13, align 4, !tbaa !126
  call void @llvm.lifetime.start.p0(i64 4, ptr %14) #13
  store float 0x47EFFFFFE0000000, ptr %14, align 4, !tbaa !126
  call void @llvm.lifetime.start.p0(i64 4, ptr %15) #13
  store i32 0, ptr %15, align 4, !tbaa !36
  br label %18

18:                                               ; preds = %94, %5
  %19 = load i32, ptr %15, align 4, !tbaa !36
  %20 = load i32, ptr %7, align 4, !tbaa !36
  %21 = icmp slt i32 %19, %20
  br i1 %21, label %23, label %22

22:                                               ; preds = %18
  call void @llvm.lifetime.end.p0(i64 4, ptr %15) #13
  br label %97

23:                                               ; preds = %18
  call void @llvm.lifetime.start.p0(i64 4, ptr %16) #13
  %24 = load ptr, ptr %6, align 8, !tbaa !128
  %25 = load i32, ptr %15, align 4, !tbaa !36
  %26 = add nsw i32 %25, 1
  %27 = load i32, ptr %7, align 4, !tbaa !36
  %28 = icmp sgt i32 %26, %27
  br i1 %28, label %29, label %31

29:                                               ; preds = %23
  %30 = load i32, ptr %7, align 4, !tbaa !36
  br label %34

31:                                               ; preds = %23
  %32 = load i32, ptr %15, align 4, !tbaa !36
  %33 = add nsw i32 %32, 1
  br label %34

34:                                               ; preds = %31, %29
  %35 = phi i32 [ %30, %29 ], [ %33, %31 ]
  %36 = sext i32 %35 to i64
  %37 = getelementptr inbounds float, ptr %24, i64 %36
  %38 = load float, ptr %37, align 4, !tbaa !126
  %39 = load ptr, ptr %6, align 8, !tbaa !128
  %40 = load i32, ptr %15, align 4, !tbaa !36
  %41 = sext i32 %40 to i64
  %42 = getelementptr inbounds float, ptr %39, i64 %41
  %43 = load float, ptr %42, align 4, !tbaa !126
  %44 = fsub nsz float %38, %43
  store float %44, ptr %16, align 4, !tbaa !126
  call void @llvm.lifetime.start.p0(i64 4, ptr %17) #13
  %45 = load float, ptr %16, align 4, !tbaa !126
  %46 = call nsz float @llvm.fabs.f32(float %45)
  %47 = fdiv nsz float %46, 0x401921FB60000000
  %48 = call nsz float @llvm.ceil.f32(float %47)
  %49 = fmul nsz float %48, 0x401921FB60000000
  %50 = load float, ptr %16, align 4, !tbaa !126
  %51 = load float, ptr %8, align 4, !tbaa !126
  %52 = fcmp nsz olt float %50, %51
  %53 = zext i1 %52 to i32
  %54 = sitofp i32 %53 to float
  %55 = fcmp nsz ogt float %54, 0.000000e+00
  %56 = zext i1 %55 to i32
  %57 = load float, ptr %16, align 4, !tbaa !126
  %58 = load float, ptr %8, align 4, !tbaa !126
  %59 = fneg nsz float %58
  %60 = fcmp nsz ogt float %57, %59
  %61 = zext i1 %60 to i32
  %62 = sitofp i32 %61 to float
  %63 = fcmp nsz ogt float %62, 0.000000e+00
  %64 = zext i1 %63 to i32
  %65 = sub nsw i32 %56, %64
  %66 = sitofp i32 %65 to float
  %67 = fmul nsz float %49, %66
  store float %67, ptr %17, align 4, !tbaa !126
  %68 = load float, ptr %17, align 4, !tbaa !126
  %69 = load float, ptr %12, align 4, !tbaa !126
  %70 = fadd nsz float %68, %69
  %71 = load ptr, ptr %6, align 8, !tbaa !128
  %72 = load i32, ptr %15, align 4, !tbaa !36
  %73 = sext i32 %72 to i64
  %74 = getelementptr inbounds float, ptr %71, i64 %73
  %75 = load float, ptr %74, align 4, !tbaa !126
  %76 = fadd nsz float %75, %70
  store float %76, ptr %74, align 4, !tbaa !126
  %77 = load float, ptr %17, align 4, !tbaa !126
  %78 = load float, ptr %12, align 4, !tbaa !126
  %79 = fadd nsz float %78, %77
  store float %79, ptr %12, align 4, !tbaa !126
  %80 = load ptr, ptr %6, align 8, !tbaa !128
  %81 = load i32, ptr %15, align 4, !tbaa !36
  %82 = sext i32 %81 to i64
  %83 = getelementptr inbounds float, ptr %80, i64 %82
  %84 = load float, ptr %83, align 4, !tbaa !126
  %85 = load float, ptr %13, align 4, !tbaa !126
  %86 = call nsz float @llvm.maxnum.f32(float %84, float %85)
  store float %86, ptr %13, align 4, !tbaa !126
  %87 = load ptr, ptr %6, align 8, !tbaa !128
  %88 = load i32, ptr %15, align 4, !tbaa !36
  %89 = sext i32 %88 to i64
  %90 = getelementptr inbounds float, ptr %87, i64 %89
  %91 = load float, ptr %90, align 4, !tbaa !126
  %92 = load float, ptr %14, align 4, !tbaa !126
  %93 = call nsz float @llvm.minnum.f32(float %91, float %92)
  store float %93, ptr %14, align 4, !tbaa !126
  call void @llvm.lifetime.end.p0(i64 4, ptr %17) #13
  call void @llvm.lifetime.end.p0(i64 4, ptr %16) #13
  br label %94

94:                                               ; preds = %34
  %95 = load i32, ptr %15, align 4, !tbaa !36
  %96 = add nsw i32 %95, 1
  store i32 %96, ptr %15, align 4, !tbaa !36
  br label %18, !llvm.loop !263

97:                                               ; preds = %22
  %98 = load float, ptr %14, align 4, !tbaa !126
  %99 = load ptr, ptr %9, align 8, !tbaa !128
  store float %98, ptr %99, align 4, !tbaa !126
  %100 = load float, ptr %13, align 4, !tbaa !126
  %101 = load ptr, ptr %10, align 8, !tbaa !128
  store float %100, ptr %101, align 4, !tbaa !126
  call void @llvm.lifetime.end.p0(i64 4, ptr %14) #13
  call void @llvm.lifetime.end.p0(i64 4, ptr %13) #13
  call void @llvm.lifetime.end.p0(i64 4, ptr %12) #13
  call void @llvm.lifetime.end.p0(i64 4, ptr %11) #13
  ret void
}

; Function Attrs: nounwind uwtable
define internal i32 @calc_channel_uphases(ptr noundef %0, ptr noundef %1, i32 noundef %2, i32 noundef %3) #1 {
  %5 = alloca ptr, align 8
  %6 = alloca ptr, align 8
  %7 = alloca i32, align 4
  %8 = alloca i32, align 4
  %9 = alloca ptr, align 8
  %10 = alloca i32, align 4
  %11 = alloca i32, align 4
  %12 = alloca ptr, align 8
  %13 = alloca float, align 4
  %14 = alloca float, align 4
  %15 = alloca float, align 4
  %16 = alloca i32, align 4
  store ptr %0, ptr %5, align 8, !tbaa !4
  store ptr %1, ptr %6, align 8, !tbaa !145
  store i32 %2, ptr %7, align 4, !tbaa !36
  store i32 %3, ptr %8, align 4, !tbaa !36
  call void @llvm.lifetime.start.p0(i64 8, ptr %9) #13
  %17 = load ptr, ptr %5, align 8, !tbaa !4
  %18 = getelementptr inbounds nuw %struct.AVFilterContext, ptr %17, i32 0, i32 9
  %19 = load ptr, ptr %18, align 8, !tbaa !9
  store ptr %19, ptr %9, align 8, !tbaa !22
  call void @llvm.lifetime.start.p0(i64 4, ptr %10) #13
  %20 = load ptr, ptr %9, align 8, !tbaa !22
  %21 = getelementptr inbounds nuw %struct.ShowSpectrumContext, ptr %20, i32 0, i32 9
  %22 = load i32, ptr %21, align 4, !tbaa !82
  %23 = icmp eq i32 %22, 0
  br i1 %23, label %24, label %28

24:                                               ; preds = %4
  %25 = load ptr, ptr %9, align 8, !tbaa !22
  %26 = getelementptr inbounds nuw %struct.ShowSpectrumContext, ptr %25, i32 0, i32 2
  %27 = load i32, ptr %26, align 4, !tbaa !111
  br label %32

28:                                               ; preds = %4
  %29 = load ptr, ptr %9, align 8, !tbaa !22
  %30 = getelementptr inbounds nuw %struct.ShowSpectrumContext, ptr %29, i32 0, i32 1
  %31 = load i32, ptr %30, align 8, !tbaa !110
  br label %32

32:                                               ; preds = %28, %24
  %33 = phi i32 [ %27, %24 ], [ %31, %28 ]
  store i32 %33, ptr %10, align 4, !tbaa !36
  call void @llvm.lifetime.start.p0(i64 4, ptr %11) #13
  %34 = load i32, ptr %7, align 4, !tbaa !36
  store i32 %34, ptr %11, align 4, !tbaa !36
  call void @llvm.lifetime.start.p0(i64 8, ptr %12) #13
  %35 = load ptr, ptr %9, align 8, !tbaa !22
  %36 = getelementptr inbounds nuw %struct.ShowSpectrumContext, ptr %35, i32 0, i32 33
  %37 = load ptr, ptr %36, align 8, !tbaa !52
  %38 = load i32, ptr %11, align 4, !tbaa !36
  %39 = sext i32 %38 to i64
  %40 = getelementptr inbounds ptr, ptr %37, i64 %39
  %41 = load ptr, ptr %40, align 8, !tbaa !128
  store ptr %41, ptr %12, align 8, !tbaa !128
  call void @llvm.lifetime.start.p0(i64 4, ptr %13) #13
  call void @llvm.lifetime.start.p0(i64 4, ptr %14) #13
  call void @llvm.lifetime.start.p0(i64 4, ptr %15) #13
  call void @llvm.lifetime.start.p0(i64 4, ptr %16) #13
  store i32 0, ptr %16, align 4, !tbaa !36
  br label %42

42:                                               ; preds = %76, %32
  %43 = load i32, ptr %16, align 4, !tbaa !36
  %44 = load i32, ptr %10, align 4, !tbaa !36
  %45 = icmp slt i32 %43, %44
  br i1 %45, label %46, label %79

46:                                               ; preds = %42
  %47 = load ptr, ptr %9, align 8, !tbaa !22
  %48 = getelementptr inbounds nuw %struct.ShowSpectrumContext, ptr %47, i32 0, i32 29
  %49 = load ptr, ptr %48, align 8, !tbaa !42
  %50 = load i32, ptr %11, align 4, !tbaa !36
  %51 = sext i32 %50 to i64
  %52 = getelementptr inbounds ptr, ptr %49, i64 %51
  %53 = load ptr, ptr %52, align 8, !tbaa !132
  %54 = load i32, ptr %16, align 4, !tbaa !36
  %55 = sext i32 %54 to i64
  %56 = getelementptr inbounds %struct.AVComplexFloat, ptr %53, i64 %55
  %57 = getelementptr inbounds nuw %struct.AVComplexFloat, ptr %56, i32 0, i32 1
  %58 = load float, ptr %57, align 4, !tbaa !224
  %59 = load ptr, ptr %9, align 8, !tbaa !22
  %60 = getelementptr inbounds nuw %struct.ShowSpectrumContext, ptr %59, i32 0, i32 29
  %61 = load ptr, ptr %60, align 8, !tbaa !42
  %62 = load i32, ptr %11, align 4, !tbaa !36
  %63 = sext i32 %62 to i64
  %64 = getelementptr inbounds ptr, ptr %61, i64 %63
  %65 = load ptr, ptr %64, align 8, !tbaa !132
  %66 = load i32, ptr %16, align 4, !tbaa !36
  %67 = sext i32 %66 to i64
  %68 = getelementptr inbounds %struct.AVComplexFloat, ptr %65, i64 %67
  %69 = getelementptr inbounds nuw %struct.AVComplexFloat, ptr %68, i32 0, i32 0
  %70 = load float, ptr %69, align 4, !tbaa !222
  %71 = call nsz float @llvm.atan2.f32(float %58, float %70)
  %72 = load ptr, ptr %12, align 8, !tbaa !128
  %73 = load i32, ptr %16, align 4, !tbaa !36
  %74 = sext i32 %73 to i64
  %75 = getelementptr inbounds float, ptr %72, i64 %74
  store float %71, ptr %75, align 4, !tbaa !126
  br label %76

76:                                               ; preds = %46
  %77 = load i32, ptr %16, align 4, !tbaa !36
  %78 = add nsw i32 %77, 1
  store i32 %78, ptr %16, align 4, !tbaa !36
  br label %42, !llvm.loop !241

79:                                               ; preds = %42
  %80 = load ptr, ptr %12, align 8, !tbaa !128
  %81 = load i32, ptr %10, align 4, !tbaa !36
  call void @unwrap(ptr noundef %80, i32 noundef %81, float noundef 0x400921FB60000000, ptr noundef %13, ptr noundef %14)
  %82 = load float, ptr %14, align 4, !tbaa !126
  %83 = load float, ptr %13, align 4, !tbaa !126
  %84 = fsub nsz float %82, %83
  %85 = fadd nsz float %84, 0x3810000000000000
  %86 = fdiv nsz float 1.000000e+00, %85
  store float %86, ptr %15, align 4, !tbaa !126
  store i32 0, ptr %16, align 4, !tbaa !36
  br label %87

87:                                               ; preds = %106, %79
  %88 = load i32, ptr %16, align 4, !tbaa !36
  %89 = load i32, ptr %10, align 4, !tbaa !36
  %90 = icmp slt i32 %88, %89
  br i1 %90, label %91, label %109

91:                                               ; preds = %87
  %92 = load ptr, ptr %12, align 8, !tbaa !128
  %93 = load i32, ptr %16, align 4, !tbaa !36
  %94 = sext i32 %93 to i64
  %95 = getelementptr inbounds float, ptr %92, i64 %94
  %96 = load float, ptr %95, align 4, !tbaa !126
  %97 = load float, ptr %13, align 4, !tbaa !126
  %98 = fsub nsz float %96, %97
  %99 = load float, ptr %15, align 4, !tbaa !126
  %100 = fmul nsz float %98, %99
  %101 = call nsz float @llvm.fabs.f32(float %100)
  %102 = load ptr, ptr %12, align 8, !tbaa !128
  %103 = load i32, ptr %16, align 4, !tbaa !36
  %104 = sext i32 %103 to i64
  %105 = getelementptr inbounds float, ptr %102, i64 %104
  store float %101, ptr %105, align 4, !tbaa !126
  br label %106

106:                                              ; preds = %91
  %107 = load i32, ptr %16, align 4, !tbaa !36
  %108 = add nsw i32 %107, 1
  store i32 %108, ptr %16, align 4, !tbaa !36
  br label %87, !llvm.loop !242

109:                                              ; preds = %87
  call void @llvm.lifetime.end.p0(i64 4, ptr %16) #13
  call void @llvm.lifetime.end.p0(i64 4, ptr %15) #13
  call void @llvm.lifetime.end.p0(i64 4, ptr %14) #13
  call void @llvm.lifetime.end.p0(i64 4, ptr %13) #13
  call void @llvm.lifetime.end.p0(i64 8, ptr %12) #13
  call void @llvm.lifetime.end.p0(i64 4, ptr %11) #13
  call void @llvm.lifetime.end.p0(i64 4, ptr %10) #13
  call void @llvm.lifetime.end.p0(i64 8, ptr %9) #13
  ret i32 0
}