; Function Attrs: nofree norecurse nosync nounwind memory(readwrite, inaccessiblemem: none) uwtable
define internal noundef i32 @calc_channel_uphases(ptr noundef readonly captures(none) %0, ptr readnone captures(none) %1, i32 noundef %2, i32 %3) #12 {
  %5 = getelementptr inbounds nuw i8, ptr %0, i64 72
  %6 = load ptr, ptr %5, align 8, !tbaa !4
  %7 = getelementptr inbounds nuw i8, ptr %6, i64 60
  %8 = load i32, ptr %7, align 4, !tbaa !73
  %9 = icmp eq i32 %8, 0
  %.in.v = select i1 %9, i64 12, i64 8
  %.in = getelementptr inbounds nuw i8, ptr %6, i64 %.in.v
  %10 = load i32, ptr %.in, align 4, !tbaa !81
  %11 = getelementptr inbounds nuw i8, ptr %6, i64 200
  %12 = load ptr, ptr %11, align 8, !tbaa !47
  %13 = sext i32 %2 to i64
  %14 = getelementptr inbounds ptr, ptr %12, i64 %13
  %15 = load ptr, ptr %14, align 8, !tbaa !117
  %16 = icmp sgt i32 %10, 0
  br i1 %16, label %.lr.ph, label %._crit_edge34

.lr.ph:                                           ; preds = %4
  %17 = getelementptr inbounds nuw i8, ptr %6, i64 168
  %18 = load ptr, ptr %17, align 8, !tbaa !37
  %19 = getelementptr inbounds ptr, ptr %18, i64 %13
  %20 = load ptr, ptr %19, align 8, !tbaa !121
  %wide.trip.count = zext nneg i32 %10 to i64
  br label %21

21:                                               ; preds = %.lr.ph, %21
  %indvars.iv = phi i64 [ 0, %.lr.ph ], [ %indvars.iv.next, %21 ]
  %22 = getelementptr inbounds nuw %struct.AVComplexFloat, ptr %20, i64 %indvars.iv
  %23 = getelementptr inbounds nuw i8, ptr %22, i64 4
  %24 = load float, ptr %23, align 4, !tbaa !209
  %25 = load float, ptr %22, align 4, !tbaa !207
  %26 = tail call nsz float @llvm.atan2.f32(float %24, float %25)
  %27 = getelementptr inbounds nuw float, ptr %15, i64 %indvars.iv
  store float %26, ptr %27, align 4, !tbaa !114
  %indvars.iv.next = add nuw nsw i64 %indvars.iv, 1
  %exitcond.not = icmp eq i64 %indvars.iv.next, %wide.trip.count
  br i1 %exitcond.not, label %.lr.ph.preheader.i, label %21, !llvm.loop !224

.lr.ph.preheader.i:                               ; preds = %21
  %wide.trip.count.i = zext nneg i32 %10 to i64
  %.pre.i = load float, ptr %15, align 4, !tbaa !114
  br label %.lr.ph.i

.lr.ph.i:                                         ; preds = %.lr.ph.i, %.lr.ph.preheader.i
  %28 = phi float [ %.pre.i, %.lr.ph.preheader.i ], [ %30, %.lr.ph.i ]
  %indvars.iv.i = phi i64 [ 0, %.lr.ph.preheader.i ], [ %indvars.iv.next.i, %.lr.ph.i ]
  %.037.i = phi float [ 0.000000e+00, %.lr.ph.preheader.i ], [ %43, %.lr.ph.i ]
  %.03036.i = phi float [ 0xC7EFFFFFE0000000, %.lr.ph.preheader.i ], [ %45, %.lr.ph.i ]
  %.03234.i = phi float [ 0x47EFFFFFE0000000, %.lr.ph.preheader.i ], [ %46, %.lr.ph.i ]
  %indvars.iv.next.i = add nuw nsw i64 %indvars.iv.i, 1
  %29 = getelementptr inbounds nuw float, ptr %15, i64 %indvars.iv.next.i
  %30 = load float, ptr %29, align 4, !tbaa !114
  %31 = getelementptr inbounds nuw float, ptr %15, i64 %indvars.iv.i
  %32 = fsub nsz float %30, %28
  %33 = tail call nsz float @llvm.fabs.f32(float %32)
  %34 = fdiv nsz float %33, 0x401921FB60000000
  %35 = tail call nsz float @llvm.ceil.f32(float %34)
  %36 = fmul nsz float %35, 0x401921FB60000000
  %37 = fcmp nsz olt float %32, 0x400921FB60000000
  %38 = zext i1 %37 to i32
  %39 = fcmp nsz ogt float %32, 0xC00921FB60000000
  %.neg.i = sext i1 %39 to i32
  %40 = add nsw i32 %.neg.i, %38
  %41 = sitofp i32 %40 to float
  %42 = fmul nsz float %36, %41
  %43 = fadd nsz float %.037.i, %42
  %44 = fadd nsz float %28, %43
  store float %44, ptr %31, align 4, !tbaa !114
  %45 = tail call nsz float @llvm.maxnum.f32(float %44, float %.03036.i)
  %46 = tail call nsz float @llvm.minnum.f32(float %44, float %.03234.i)
  %exitcond.not.i = icmp eq i64 %indvars.iv.next.i, %wide.trip.count.i
  br i1 %exitcond.not.i, label %.lr.ph33.preheader, label %.lr.ph.i, !llvm.loop !225

.lr.ph33.preheader:                               ; preds = %.lr.ph.i
  %47 = fsub nsz float %45, %46
  %48 = fadd nsz float %47, 0x3810000000000000
  %49 = fdiv nsz float 1.000000e+00, %48
  %wide.trip.count40 = zext nneg i32 %10 to i64
  br label %.lr.ph33

.lr.ph33:                                         ; preds = %.lr.ph33.preheader, %.lr.ph33
  %indvars.iv37 = phi i64 [ 0, %.lr.ph33.preheader ], [ %indvars.iv.next38, %.lr.ph33 ]
  %50 = getelementptr inbounds nuw float, ptr %15, i64 %indvars.iv37
  %51 = load float, ptr %50, align 4, !tbaa !114
  %52 = fsub nsz float %51, %46
  %53 = fmul nsz float %49, %52
  %54 = tail call nsz float @llvm.fabs.f32(float %53)
  store float %54, ptr %50, align 4, !tbaa !114
  %indvars.iv.next38 = add nuw nsw i64 %indvars.iv37, 1
  %exitcond41.not = icmp eq i64 %indvars.iv.next38, %wide.trip.count40
  br i1 %exitcond41.not, label %._crit_edge34, label %.lr.ph33, !llvm.loop !226

._crit_edge34:                                    ; preds = %.lr.ph33, %4
  ret i32 0
}